target datalayout = "e-m:e-p270:32:32-p271:32:32-p272:64:64-i64:64-i128:128-f80:128-n8:16:32:64-S128"
target triple = "x86_64-unknown-linux-gnu"

%"class.std::vector.15" = type { %"struct.std::_Vector_base.16" }
%"struct.std::_Vector_base.16" = type { %"struct.std::_Vector_base<std::__cxx11::basic_string<char>, std::allocator<std::__cxx11::basic_string<char>>>::_Vector_impl" }
%"struct.std::_Vector_base<std::__cxx11::basic_string<char>, std::allocator<std::__cxx11::basic_string<char>>>::_Vector_impl" = type { %"struct.std::_Vector_base<std::__cxx11::basic_string<char>, std::allocator<std::__cxx11::basic_string<char>>>::_Vector_impl_data" }
%"struct.std::_Vector_base<std::__cxx11::basic_string<char>, std::allocator<std::__cxx11::basic_string<char>>>::_Vector_impl_data" = type { ptr, ptr, ptr }
%"struct.std::_Vector_base.10" = type { %"struct.std::_Vector_base<node::PropInfo, std::allocator<node::PropInfo>>::_Vector_impl" }
%"struct.std::_Vector_base<node::PropInfo, std::allocator<node::PropInfo>>::_Vector_impl" = type { %"struct.std::_Vector_base<node::PropInfo, std::allocator<node::PropInfo>>::_Vector_impl_data" }
%"struct.std::_Vector_base<node::PropInfo, std::allocator<node::PropInfo>>::_Vector_impl_data" = type { ptr, ptr, ptr }
%"struct.node::RealmSerializeInfo" = type { %"class.std::vector.15", %"class.std::vector.9", %"class.std::vector.9", i64 }
%"class.std::vector.9" = type { %"struct.std::_Vector_base.10" }
%"struct.node::EnvSerializeInfo" = type { %"struct.node::AsyncHooks::SerializeInfo", %"struct.node::TickInfo::SerializeInfo", %"struct.node::ImmediateInfo::SerializeInfo", i64, %"struct.node::performance::PerformanceState::SerializeInfo", i64, i64, i64, %"struct.node::RealmSerializeInfo" }
%"struct.node::AsyncHooks::SerializeInfo" = type { i64, i64, i64, i64, %"class.std::vector.21" }
%"class.std::vector.21" = type { %"struct.std::_Vector_base.22" }
%"struct.std::_Vector_base.22" = type { %"struct.std::_Vector_base<unsigned long, std::allocator<unsigned long>>::_Vector_impl" }
%"struct.std::_Vector_base<unsigned long, std::allocator<unsigned long>>::_Vector_impl" = type { %"struct.std::_Vector_base<unsigned long, std::allocator<unsigned long>>::_Vector_impl_data" }
%"struct.std::_Vector_base<unsigned long, std::allocator<unsigned long>>::_Vector_impl_data" = type { ptr, ptr, ptr }
%"struct.node::TickInfo::SerializeInfo" = type { i64 }
%"struct.node::ImmediateInfo::SerializeInfo" = type { i64 }
%"struct.node::performance::PerformanceState::SerializeInfo" = type { i64, i64, i64 }

@.str.3 = private unnamed_addr constant [3 x i8] c"{\0A\00", align 1
@.str.6 = private unnamed_addr constant [2 x i8] c"}\00", align 1
@.str.8 = private unnamed_addr constant [3 x i8] c",\0A\00", align 1
@.str.22 = private unnamed_addr constant [29 x i8] c"// -- async_hooks begins --\0A\00", align 1
@.str.23 = private unnamed_addr constant [27 x i8] c"// -- async_hooks ends --\0A\00", align 1
@.str.24 = private unnamed_addr constant [17 x i8] c",  // tick_info\0A\00", align 1
@.str.25 = private unnamed_addr constant [22 x i8] c",  // immediate_info\0A\00", align 1
@.str.26 = private unnamed_addr constant [20 x i8] c",  // timeout_info\0A\00", align 1
@.str.27 = private unnamed_addr constant [35 x i8] c"// -- performance_state begins --\0A\00", align 1
@.str.28 = private unnamed_addr constant [33 x i8] c"// -- performance_state ends --\0A\00", align 1
@.str.29 = private unnamed_addr constant [17 x i8] c",  // exit_info\0A\00", align 1
@.str.30 = private unnamed_addr constant [25 x i8] c",  // stream_base_state\0A\00", align 1
@.str.31 = private unnamed_addr constant [39 x i8] c",  // should_abort_on_uncaught_toggle\0A\00", align 1
@.str.32 = private unnamed_addr constant [33 x i8] c"// -- principal_realm begins --\0A\00", align 1
@.str.33 = private unnamed_addr constant [31 x i8] c"// -- principal_realm ends --\0A\00", align 1

; Function Attrs: mustprogress nounwind uwtable
define dso_local noundef nonnull align 8 dereferenceable(8) ptr @_ZN4nodelsERSoRKNS_16EnvSerializeInfoE(ptr noundef nonnull align 8 dereferenceable(8) %output, ptr noundef nonnull align 8 dereferenceable(208) %i) #4 {
entry:
  %output.addr = alloca ptr, align 8
  %i.addr = alloca ptr, align 8
  store ptr %output, ptr %output.addr, align 8
  store ptr %i, ptr %i.addr, align 8
  %0 = load ptr, ptr %output.addr, align 8
  %call = call noundef nonnull align 8 dereferenceable(8) ptr @_ZStlsISt11char_traitsIcEERSt13basic_ostreamIcT_ES5_PKc(ptr noundef nonnull align 8 dereferenceable(8) %0, ptr noundef @.str.3)
  %call1 = call noundef nonnull align 8 dereferenceable(8) ptr @_ZStlsISt11char_traitsIcEERSt13basic_ostreamIcT_ES5_PKc(ptr noundef nonnull align 8 dereferenceable(8) %call, ptr noundef @.str.22)
  %1 = load ptr, ptr %i.addr, align 8
  %async_hooks = getelementptr inbounds %"struct.node::EnvSerializeInfo", ptr %1, i32 0, i32 0
  %call2 = call noundef nonnull align 8 dereferenceable(8) ptr @_ZN4nodelsERSoRKNS_10AsyncHooks13SerializeInfoE(ptr noundef nonnull align 8 dereferenceable(8) %call1, ptr noundef nonnull align 8 dereferenceable(56) %async_hooks)
  %call3 = call noundef nonnull align 8 dereferenceable(8) ptr @_ZStlsISt11char_traitsIcEERSt13basic_ostreamIcT_ES5_PKc(ptr noundef nonnull align 8 dereferenceable(8) %call2, ptr noundef @.str.8)
  %call4 = call noundef nonnull align 8 dereferenceable(8) ptr @_ZStlsISt11char_traitsIcEERSt13basic_ostreamIcT_ES5_PKc(ptr noundef nonnull align 8 dereferenceable(8) %call3, ptr noundef @.str.23)
  %2 = load ptr, ptr %i.addr, align 8
  %tick_info = getelementptr inbounds %"struct.node::EnvSerializeInfo", ptr %2, i32 0, i32 1
  %call5 = call noundef nonnull align 8 dereferenceable(8) ptr @_ZN4nodelsERSoRKNS_8TickInfo13SerializeInfoE(ptr noundef nonnull align 8 dereferenceable(8) %call4, ptr noundef nonnull align 8 dereferenceable(8) %tick_info)
  %call6 = call noundef nonnull align 8 dereferenceable(8) ptr @_ZStlsISt11char_traitsIcEERSt13basic_ostreamIcT_ES5_PKc(ptr noundef nonnull align 8 dereferenceable(8) %call5, ptr noundef @.str.24)
  %3 = load ptr, ptr %i.addr, align 8
  %immediate_info = getelementptr inbounds %"struct.node::EnvSerializeInfo", ptr %3, i32 0, i32 2
  %call7 = call noundef nonnull align 8 dereferenceable(8) ptr @_ZN4nodelsERSoRKNS_13ImmediateInfo13SerializeInfoE(ptr noundef nonnull align 8 dereferenceable(8) %call6, ptr noundef nonnull align 8 dereferenceable(8) %immediate_info)
  %call8 = call noundef nonnull align 8 dereferenceable(8) ptr @_ZStlsISt11char_traitsIcEERSt13basic_ostreamIcT_ES5_PKc(ptr noundef nonnull align 8 dereferenceable(8) %call7, ptr noundef @.str.25)
  %4 = load ptr, ptr %i.addr, align 8
  %timeout_info = getelementptr inbounds %"struct.node::EnvSerializeInfo", ptr %4, i32 0, i32 3
  %5 = load i64, ptr %timeout_info, align 8
  %call9 = call noundef nonnull align 8 dereferenceable(8) ptr @_ZNSolsEm(ptr noundef nonnull align 8 dereferenceable(8) %call8, i64 noundef %5)
  %call10 = call noundef nonnull align 8 dereferenceable(8) ptr @_ZStlsISt11char_traitsIcEERSt13basic_ostreamIcT_ES5_PKc(ptr noundef nonnull align 8 dereferenceable(8) %call9, ptr noundef @.str.26)
  %call11 = call noundef nonnull align 8 dereferenceable(8) ptr @_ZStlsISt11char_traitsIcEERSt13basic_ostreamIcT_ES5_PKc(ptr noundef nonnull align 8 dereferenceable(8) %call10, ptr noundef @.str.27)
  %6 = load ptr, ptr %i.addr, align 8
  %performance_state = getelementptr inbounds %"struct.node::EnvSerializeInfo", ptr %6, i32 0, i32 4
  %call12 = call noundef nonnull align 8 dereferenceable(8) ptr @_ZN4node11performancelsERSoRKNS0_16PerformanceState13SerializeInfoE(ptr noundef nonnull align 8 dereferenceable(8) %call11, ptr noundef nonnull align 8 dereferenceable(24) %performance_state)
  %call13 = call noundef nonnull align 8 dereferenceable(8) ptr @_ZStlsISt11char_traitsIcEERSt13basic_ostreamIcT_ES5_PKc(ptr noundef nonnull align 8 dereferenceable(8) %call12, ptr noundef @.str.8)
  %call14 = call noundef nonnull align 8 dereferenceable(8) ptr @_ZStlsISt11char_traitsIcEERSt13basic_ostreamIcT_ES5_PKc(ptr noundef nonnull align 8 dereferenceable(8) %call13, ptr noundef @.str.28)
  %7 = load ptr, ptr %i.addr, align 8
  %exit_info = getelementptr inbounds %"struct.node::EnvSerializeInfo", ptr %7, i32 0, i32 5
  %8 = load i64, ptr %exit_info, align 8
  %call15 = call noundef nonnull align 8 dereferenceable(8) ptr @_ZNSolsEm(ptr noundef nonnull align 8 dereferenceable(8) %call14, i64 noundef %8)
  %call16 = call noundef nonnull align 8 dereferenceable(8) ptr @_ZStlsISt11char_traitsIcEERSt13basic_ostreamIcT_ES5_PKc(ptr noundef nonnull align 8 dereferenceable(8) %call15, ptr noundef @.str.29)
  %9 = load ptr, ptr %i.addr, align 8
  %stream_base_state = getelementptr inbounds %"struct.node::EnvSerializeInfo", ptr %9, i32 0, i32 6
  %10 = load i64, ptr %stream_base_state, align 8
  %call17 = call noundef nonnull align 8 dereferenceable(8) ptr @_ZNSolsEm(ptr noundef nonnull align 8 dereferenceable(8) %call16, i64 noundef %10)
  %call18 = call noundef nonnull align 8 dereferenceable(8) ptr @_ZStlsISt11char_traitsIcEERSt13basic_ostreamIcT_ES5_PKc(ptr noundef nonnull align 8 dereferenceable(8) %call17, ptr noundef @.str.30)
  %11 = load ptr, ptr %i.addr, align 8
  %should_abort_on_uncaught_toggle = getelementptr inbounds %"struct.node::EnvSerializeInfo", ptr %11, i32 0, i32 7
  %12 = load i64, ptr %should_abort_on_uncaught_toggle, align 8
  %call19 = call noundef nonnull align 8 dereferenceable(8) ptr @_ZNSolsEm(ptr noundef nonnull align 8 dereferenceable(8) %call18, i64 noundef %12)
  %call20 = call noundef nonnull align 8 dereferenceable(8) ptr @_ZStlsISt11char_traitsIcEERSt13basic_ostreamIcT_ES5_PKc(ptr noundef nonnull align 8 dereferenceable(8) %call19, ptr noundef @.str.31)
  %call21 = call noundef nonnull align 8 dereferenceable(8) ptr @_ZStlsISt11char_traitsIcEERSt13basic_ostreamIcT_ES5_PKc(ptr noundef nonnull align 8 dereferenceable(8) %call20, ptr noundef @.str.32)
  %13 = load ptr, ptr %i.addr, align 8
  %principal_realm = getelementptr inbounds %"struct.node::EnvSerializeInfo", ptr %13, i32 0, i32 8
  %call22 = call noundef nonnull align 8 dereferenceable(8) ptr @_ZN4nodelsERSoRKNS_18RealmSerializeInfoE(ptr noundef nonnull align 8 dereferenceable(8) %call21, ptr noundef nonnull align 8 dereferenceable(80) %principal_realm)
  %call23 = call noundef nonnull align 8 dereferenceable(8) ptr @_ZStlsISt11char_traitsIcEERSt13basic_ostreamIcT_ES5_PKc(ptr noundef nonnull align 8 dereferenceable(8) %call22, ptr noundef @.str.8)
  %call24 = call noundef nonnull align 8 dereferenceable(8) ptr @_ZStlsISt11char_traitsIcEERSt13basic_ostreamIcT_ES5_PKc(ptr noundef nonnull align 8 dereferenceable(8) %call23, ptr noundef @.str.33)
  %call25 = call noundef nonnull align 8 dereferenceable(8) ptr @_ZStlsISt11char_traitsIcEERSt13basic_ostreamIcT_ES5_PKc(ptr noundef nonnull align 8 dereferenceable(8) %call24, ptr noundef @.str.6)
  %14 = load ptr, ptr %output.addr, align 8
  ret ptr %14
}