; Function Attrs: mustprogress nounwind uwtable
define dso_local noundef nonnull align 8 dereferenceable(8) ptr @_ZN4nodelsERSoRKNS_16EnvSerializeInfoE(ptr noundef nonnull returned align 8 dereferenceable(8) %output, ptr noundef nonnull align 8 dereferenceable(208) %i) local_unnamed_addr #3 {
entry:
  %call = tail call noundef nonnull align 8 dereferenceable(8) ptr @_ZStlsISt11char_traitsIcEERSt13basic_ostreamIcT_ES5_PKc(ptr noundef nonnull align 8 dereferenceable(8) %output, ptr noundef nonnull @.str.3) #23
  %call1 = tail call noundef nonnull align 8 dereferenceable(8) ptr @_ZStlsISt11char_traitsIcEERSt13basic_ostreamIcT_ES5_PKc(ptr noundef nonnull align 8 dereferenceable(8) %call, ptr noundef nonnull @.str.22) #23
  %call2 = tail call noundef nonnull align 8 dereferenceable(8) ptr @_ZN4nodelsERSoRKNS_10AsyncHooks13SerializeInfoE(ptr noundef nonnull align 8 dereferenceable(8) %call1, ptr noundef nonnull align 8 dereferenceable(56) %i) #23
  %call3 = tail call noundef nonnull align 8 dereferenceable(8) ptr @_ZStlsISt11char_traitsIcEERSt13basic_ostreamIcT_ES5_PKc(ptr noundef nonnull align 8 dereferenceable(8) %call2, ptr noundef nonnull @.str.8) #23
  %call4 = tail call noundef nonnull align 8 dereferenceable(8) ptr @_ZStlsISt11char_traitsIcEERSt13basic_ostreamIcT_ES5_PKc(ptr noundef nonnull align 8 dereferenceable(8) %call3, ptr noundef nonnull @.str.23) #23
  %tick_info = getelementptr inbounds i8, ptr %i, i64 56
  %call5 = tail call noundef nonnull align 8 dereferenceable(8) ptr @_ZN4nodelsERSoRKNS_8TickInfo13SerializeInfoE(ptr noundef nonnull align 8 dereferenceable(8) %call4, ptr noundef nonnull align 8 dereferenceable(8) %tick_info) #23
  %call6 = tail call noundef nonnull align 8 dereferenceable(8) ptr @_ZStlsISt11char_traitsIcEERSt13basic_ostreamIcT_ES5_PKc(ptr noundef nonnull align 8 dereferenceable(8) %call5, ptr noundef nonnull @.str.24) #23
  %immediate_info = getelementptr inbounds i8, ptr %i, i64 64
  %call7 = tail call noundef nonnull align 8 dereferenceable(8) ptr @_ZN4nodelsERSoRKNS_13ImmediateInfo13SerializeInfoE(ptr noundef nonnull align 8 dereferenceable(8) %call6, ptr noundef nonnull align 8 dereferenceable(8) %immediate_info) #23
  %call8 = tail call noundef nonnull align 8 dereferenceable(8) ptr @_ZStlsISt11char_traitsIcEERSt13basic_ostreamIcT_ES5_PKc(ptr noundef nonnull align 8 dereferenceable(8) %call7, ptr noundef nonnull @.str.25) #23
  %timeout_info = getelementptr inbounds i8, ptr %i, i64 72
  %0 = load i64, ptr %timeout_info, align 8
  %call9 = tail call noundef nonnull align 8 dereferenceable(8) ptr @_ZNSolsEm(ptr noundef nonnull align 8 dereferenceable(8) %call8, i64 noundef %0) #23
  %call10 = tail call noundef nonnull align 8 dereferenceable(8) ptr @_ZStlsISt11char_traitsIcEERSt13basic_ostreamIcT_ES5_PKc(ptr noundef nonnull align 8 dereferenceable(8) %call9, ptr noundef nonnull @.str.26) #23
  %call11 = tail call noundef nonnull align 8 dereferenceable(8) ptr @_ZStlsISt11char_traitsIcEERSt13basic_ostreamIcT_ES5_PKc(ptr noundef nonnull align 8 dereferenceable(8) %call10, ptr noundef nonnull @.str.27) #23
  %performance_state = getelementptr inbounds i8, ptr %i, i64 80
  %call12 = tail call noundef nonnull align 8 dereferenceable(8) ptr @_ZN4node11performancelsERSoRKNS0_16PerformanceState13SerializeInfoE(ptr noundef nonnull align 8 dereferenceable(8) %call11, ptr noundef nonnull align 8 dereferenceable(24) %performance_state) #23
  %call13 = tail call noundef nonnull align 8 dereferenceable(8) ptr @_ZStlsISt11char_traitsIcEERSt13basic_ostreamIcT_ES5_PKc(ptr noundef nonnull align 8 dereferenceable(8) %call12, ptr noundef nonnull @.str.8) #23
  %call14 = tail call noundef nonnull align 8 dereferenceable(8) ptr @_ZStlsISt11char_traitsIcEERSt13basic_ostreamIcT_ES5_PKc(ptr noundef nonnull align 8 dereferenceable(8) %call13, ptr noundef nonnull @.str.28) #23
  %exit_info = getelementptr inbounds i8, ptr %i, i64 104
  %1 = load i64, ptr %exit_info, align 8
  %call15 = tail call noundef nonnull align 8 dereferenceable(8) ptr @_ZNSolsEm(ptr noundef nonnull align 8 dereferenceable(8) %call14, i64 noundef %1) #23
  %call16 = tail call noundef nonnull align 8 dereferenceable(8) ptr @_ZStlsISt11char_traitsIcEERSt13basic_ostreamIcT_ES5_PKc(ptr noundef nonnull align 8 dereferenceable(8) %call15, ptr noundef nonnull @.str.29) #23
  %stream_base_state = getelementptr inbounds i8, ptr %i, i64 112
  %2 = load i64, ptr %stream_base_state, align 8
  %call17 = tail call noundef nonnull align 8 dereferenceable(8) ptr @_ZNSolsEm(ptr noundef nonnull align 8 dereferenceable(8) %call16, i64 noundef %2) #23
  %call18 = tail call noundef nonnull align 8 dereferenceable(8) ptr @_ZStlsISt11char_traitsIcEERSt13basic_ostreamIcT_ES5_PKc(ptr noundef nonnull align 8 dereferenceable(8) %call17, ptr noundef nonnull @.str.30) #23
  %should_abort_on_uncaught_toggle = getelementptr inbounds i8, ptr %i, i64 120
  %3 = load i64, ptr %should_abort_on_uncaught_toggle, align 8
  %call19 = tail call noundef nonnull align 8 dereferenceable(8) ptr @_ZNSolsEm(ptr noundef nonnull align 8 dereferenceable(8) %call18, i64 noundef %3) #23
  %call20 = tail call noundef nonnull align 8 dereferenceable(8) ptr @_ZStlsISt11char_traitsIcEERSt13basic_ostreamIcT_ES5_PKc(ptr noundef nonnull align 8 dereferenceable(8) %call19, ptr noundef nonnull @.str.31) #23
  %call21 = tail call noundef nonnull align 8 dereferenceable(8) ptr @_ZStlsISt11char_traitsIcEERSt13basic_ostreamIcT_ES5_PKc(ptr noundef nonnull align 8 dereferenceable(8) %call20, ptr noundef nonnull @.str.32) #23
  %principal_realm = getelementptr inbounds i8, ptr %i, i64 128
  %call22 = tail call noundef nonnull align 8 dereferenceable(8) ptr @_ZN4nodelsERSoRKNS_18RealmSerializeInfoE(ptr noundef nonnull align 8 dereferenceable(8) %call21, ptr noundef nonnull align 8 dereferenceable(80) %principal_realm)
  %call23 = tail call noundef nonnull align 8 dereferenceable(8) ptr @_ZStlsISt11char_traitsIcEERSt13basic_ostreamIcT_ES5_PKc(ptr noundef nonnull align 8 dereferenceable(8) %call21, ptr noundef nonnull @.str.8) #23
  %call24 = tail call noundef nonnull align 8 dereferenceable(8) ptr @_ZStlsISt11char_traitsIcEERSt13basic_ostreamIcT_ES5_PKc(ptr noundef nonnull align 8 dereferenceable(8) %call23, ptr noundef nonnull @.str.33) #23
  %call25 = tail call noundef nonnull align 8 dereferenceable(8) ptr @_ZStlsISt11char_traitsIcEERSt13basic_ostreamIcT_ES5_PKc(ptr noundef nonnull align 8 dereferenceable(8) %call24, ptr noundef nonnull @.str.6) #23
  ret ptr %output
}